target datalayout = "e-m:e-p270:32:32-p271:32:32-p272:64:64-i64:64-i128:128-f80:128-n8:16:32:64-S128"
target triple = "x86_64-pc-linux-gnu"

%struct.FilterParams = type { i32, double, ptr, ptr, ptr }

; Function Attrs: nounwind uwtable
define internal void @blend_dodge_32bit(ptr noundef %0, i64 noundef %1, ptr noundef %2, i64 noundef %3, ptr noundef %4, i64 noundef %5, i64 noundef %6, i64 noundef %7, ptr noundef %8, ptr noundef %9) #0 {
  %11 = alloca ptr, align 8
  %12 = alloca i64, align 8
  %13 = alloca ptr, align 8
  %14 = alloca i64, align 8
  %15 = alloca ptr, align 8
  %16 = alloca i64, align 8
  %17 = alloca i64, align 8
  %18 = alloca i64, align 8
  %19 = alloca ptr, align 8
  %20 = alloca ptr, align 8
  %21 = alloca ptr, align 8
  %22 = alloca ptr, align 8
  %23 = alloca ptr, align 8
  %24 = alloca float, align 4
  %25 = alloca i32, align 4
  %26 = alloca i32, align 4
  %27 = alloca i32, align 4
  store ptr %0, ptr %11, align 8, !tbaa !46
  store i64 %1, ptr %12, align 8, !tbaa !88
  store ptr %2, ptr %13, align 8, !tbaa !46
  store i64 %3, ptr %14, align 8, !tbaa !88
  store ptr %4, ptr %15, align 8, !tbaa !46
  store i64 %5, ptr %16, align 8, !tbaa !88
  store i64 %6, ptr %17, align 8, !tbaa !88
  store i64 %7, ptr %18, align 8, !tbaa !88
  store ptr %8, ptr %19, align 8, !tbaa !77
  store ptr %9, ptr %20, align 8, !tbaa !89
  call void @llvm.lifetime.start.p0(i64 8, ptr %21) #12
  %28 = load ptr, ptr %11, align 8, !tbaa !46
  store ptr %28, ptr %21, align 8, !tbaa !91
  call void @llvm.lifetime.start.p0(i64 8, ptr %22) #12
  %29 = load ptr, ptr %13, align 8, !tbaa !46
  store ptr %29, ptr %22, align 8, !tbaa !91
  call void @llvm.lifetime.start.p0(i64 8, ptr %23) #12
  %30 = load ptr, ptr %15, align 8, !tbaa !46
  store ptr %30, ptr %23, align 8, !tbaa !91
  call void @llvm.lifetime.start.p0(i64 4, ptr %24) #12
  %31 = load ptr, ptr %19, align 8, !tbaa !77
  %32 = getelementptr inbounds nuw %struct.FilterParams, ptr %31, i32 0, i32 1
  %33 = load double, ptr %32, align 8, !tbaa !82
  %34 = fptrunc nsz double %33 to float
  store float %34, ptr %24, align 4, !tbaa !99
  %35 = load i64, ptr %16, align 8, !tbaa !88
  %36 = udiv i64 %35, 4
  store i64 %36, ptr %16, align 8, !tbaa !88
  %37 = load i64, ptr %12, align 8, !tbaa !88
  %38 = udiv i64 %37, 4
  store i64 %38, ptr %12, align 8, !tbaa !88
  %39 = load i64, ptr %14, align 8, !tbaa !88
  %40 = udiv i64 %39, 4
  store i64 %40, ptr %14, align 8, !tbaa !88
  call void @llvm.lifetime.start.p0(i64 4, ptr %25) #12
  store i32 0, ptr %25, align 4, !tbaa !37
  br label %41

41:                                               ; preds = %139, %10
  %42 = load i32, ptr %25, align 4, !tbaa !37
  %43 = sext i32 %42 to i64
  %44 = load i64, ptr %18, align 8, !tbaa !88
  %45 = icmp slt i64 %43, %44
  br i1 %45, label %47, label %46

46:                                               ; preds = %41
  store i32 2, ptr %26, align 4
  call void @llvm.lifetime.end.p0(i64 4, ptr %25) #12
  br label %142

47:                                               ; preds = %41
  call void @llvm.lifetime.start.p0(i64 4, ptr %27) #12
  store i32 0, ptr %27, align 4, !tbaa !37
  br label %48

48:                                               ; preds = %126, %47
  %49 = load i32, ptr %27, align 4, !tbaa !37
  %50 = sext i32 %49 to i64
  %51 = load i64, ptr %17, align 8, !tbaa !88
  %52 = icmp slt i64 %50, %51
  br i1 %52, label %54, label %53

53:                                               ; preds = %48
  store i32 5, ptr %26, align 4
  call void @llvm.lifetime.end.p0(i64 4, ptr %27) #12
  br label %129

54:                                               ; preds = %48
  %55 = load ptr, ptr %21, align 8, !tbaa !91
  %56 = load i32, ptr %27, align 4, !tbaa !37
  %57 = sext i32 %56 to i64
  %58 = getelementptr inbounds float, ptr %55, i64 %57
  %59 = load float, ptr %58, align 4, !tbaa !99
  %60 = fpext nsz float %59 to double
  %61 = load ptr, ptr %21, align 8, !tbaa !91
  %62 = load i32, ptr %27, align 4, !tbaa !37
  %63 = sext i32 %62 to i64
  %64 = getelementptr inbounds float, ptr %61, i64 %63
  %65 = load float, ptr %64, align 4, !tbaa !99
  %66 = fpext nsz float %65 to double
  %67 = fcmp nsz oge double %66, 1.000000e+00
  br i1 %67, label %68, label %75

68:                                               ; preds = %54
  %69 = load ptr, ptr %21, align 8, !tbaa !91
  %70 = load i32, ptr %27, align 4, !tbaa !37
  %71 = sext i32 %70 to i64
  %72 = getelementptr inbounds float, ptr %69, i64 %71
  %73 = load float, ptr %72, align 4, !tbaa !99
  %74 = fpext nsz float %73 to double
  br label %109

75:                                               ; preds = %54
  %76 = load ptr, ptr %22, align 8, !tbaa !91
  %77 = load i32, ptr %27, align 4, !tbaa !37
  %78 = sext i32 %77 to i64
  %79 = getelementptr inbounds float, ptr %76, i64 %78
  %80 = load float, ptr %79, align 4, !tbaa !99
  %81 = fpext nsz float %80 to double
  %82 = load ptr, ptr %21, align 8, !tbaa !91
  %83 = load i32, ptr %27, align 4, !tbaa !37
  %84 = sext i32 %83 to i64
  %85 = getelementptr inbounds float, ptr %82, i64 %84
  %86 = load float, ptr %85, align 4, !tbaa !99
  %87 = fpext nsz float %86 to double
  %88 = fsub nsz double 1.000000e+00, %87
  %89 = fdiv nsz double %81, %88
  %90 = fcmp nsz ogt double 1.000000e+00, %89
  br i1 %90, label %91, label %106

91:                                               ; preds = %75
  %92 = load ptr, ptr %22, align 8, !tbaa !91
  %93 = load i32, ptr %27, align 4, !tbaa !37
  %94 = sext i32 %93 to i64
  %95 = getelementptr inbounds float, ptr %92, i64 %94
  %96 = load float, ptr %95, align 4, !tbaa !99
  %97 = fpext nsz float %96 to double
  %98 = load ptr, ptr %21, align 8, !tbaa !91
  %99 = load i32, ptr %27, align 4, !tbaa !37
  %100 = sext i32 %99 to i64
  %101 = getelementptr inbounds float, ptr %98, i64 %100
  %102 = load float, ptr %101, align 4, !tbaa !99
  %103 = fpext nsz float %102 to double
  %104 = fsub nsz double 1.000000e+00, %103
  %105 = fdiv nsz double %97, %104
  br label %107

106:                                              ; preds = %75
  br label %107

107:                                              ; preds = %106, %91
  %108 = phi nsz double [ %105, %91 ], [ 1.000000e+00, %106 ]
  br label %109

109:                                              ; preds = %107, %68
  %110 = phi nsz double [ %74, %68 ], [ %108, %107 ]
  %111 = load ptr, ptr %21, align 8, !tbaa !91
  %112 = load i32, ptr %27, align 4, !tbaa !37
  %113 = sext i32 %112 to i64
  %114 = getelementptr inbounds float, ptr %111, i64 %113
  %115 = load float, ptr %114, align 4, !tbaa !99
  %116 = fpext nsz float %115 to double
  %117 = fsub nsz double %110, %116
  %118 = load float, ptr %24, align 4, !tbaa !99
  %119 = fpext nsz float %118 to double
  %120 = call nsz double @llvm.fmuladd.f64(double %117, double %119, double %60)
  %121 = fptrunc nsz double %120 to float
  %122 = load ptr, ptr %23, align 8, !tbaa !91
  %123 = load i32, ptr %27, align 4, !tbaa !37
  %124 = sext i32 %123 to i64
  %125 = getelementptr inbounds float, ptr %122, i64 %124
  store float %121, ptr %125, align 4, !tbaa !99
  br label %126

126:                                              ; preds = %109
  %127 = load i32, ptr %27, align 4, !tbaa !37
  %128 = add nsw i32 %127, 1
  store i32 %128, ptr %27, align 4, !tbaa !37
  br label %48, !llvm.loop !602

129:                                              ; preds = %53
  %130 = load i64, ptr %16, align 8, !tbaa !88
  %131 = load ptr, ptr %23, align 8, !tbaa !91
  %132 = getelementptr inbounds float, ptr %131, i64 %130
  store ptr %132, ptr %23, align 8, !tbaa !91
  %133 = load i64, ptr %12, align 8, !tbaa !88
  %134 = load ptr, ptr %21, align 8, !tbaa !91
  %135 = getelementptr inbounds float, ptr %134, i64 %133
  store ptr %135, ptr %21, align 8, !tbaa !91
  %136 = load i64, ptr %14, align 8, !tbaa !88
  %137 = load ptr, ptr %22, align 8, !tbaa !91
  %138 = getelementptr inbounds float, ptr %137, i64 %136
  store ptr %138, ptr %22, align 8, !tbaa !91
  br label %139

139:                                              ; preds = %129
  %140 = load i32, ptr %25, align 4, !tbaa !37
  %141 = add nsw i32 %140, 1
  store i32 %141, ptr %25, align 4, !tbaa !37
  br label %41, !llvm.loop !603

142:                                              ; preds = %46
  call void @llvm.lifetime.end.p0(i64 4, ptr %24) #12
  call void @llvm.lifetime.end.p0(i64 8, ptr %23) #12
  call void @llvm.lifetime.end.p0(i64 8, ptr %22) #12
  call void @llvm.lifetime.end.p0(i64 8, ptr %21) #12
  ret void
}