; Function Attrs: nofree norecurse nosync nounwind memory(argmem: readwrite) uwtable
define internal void @blend_dodge_32bit(ptr noundef readonly captures(none) %0, i64 noundef %1, ptr noundef readonly captures(none) %2, i64 noundef %3, ptr noundef writeonly captures(none) %4, i64 noundef %5, i64 noundef %6, i64 noundef %7, ptr noundef readonly captures(none) %8, ptr readnone captures(none) %9) #6 {
  %11 = lshr i64 %5, 2
  %12 = lshr i64 %1, 2
  %13 = lshr i64 %3, 2
  %14 = icmp sgt i64 %7, 0
  br i1 %14, label %.preheader.lr.ph, label %._crit_edge49

.preheader.lr.ph:                                 ; preds = %10
  %15 = getelementptr inbounds nuw i8, ptr %8, i64 8
  %16 = load double, ptr %15, align 8, !tbaa !70
  %17 = fptrunc nsz double %16 to float
  %18 = icmp sgt i64 %6, 0
  %19 = fpext nsz float %17 to double
  br i1 %18, label %.preheader.us, label %._crit_edge49

.preheader.us:                                    ; preds = %.preheader.lr.ph, %._crit_edge.us
  %indvars.iv53 = phi i64 [ %indvars.iv.next54, %._crit_edge.us ], [ 0, %.preheader.lr.ph ]
  %.03847.us = phi ptr [ %39, %._crit_edge.us ], [ %4, %.preheader.lr.ph ]
  %.03946.us = phi ptr [ %41, %._crit_edge.us ], [ %2, %.preheader.lr.ph ]
  %.04045.us = phi ptr [ %40, %._crit_edge.us ], [ %0, %.preheader.lr.ph ]
  br label %20

20:                                               ; preds = %.preheader.us, %33
  %indvars.iv = phi i64 [ 0, %.preheader.us ], [ %indvars.iv.next, %33 ]
  %21 = getelementptr inbounds nuw float, ptr %.04045.us, i64 %indvars.iv
  %22 = load float, ptr %21, align 4, !tbaa !81
  %23 = fpext nsz float %22 to double
  %24 = fcmp nsz ult float %22, 1.000000e+00
  br i1 %24, label %25, label %33

25:                                               ; preds = %20
  %26 = getelementptr inbounds nuw float, ptr %.03946.us, i64 %indvars.iv
  %27 = load float, ptr %26, align 4, !tbaa !81
  %28 = fpext nsz float %27 to double
  %29 = fsub nsz double 1.000000e+00, %23
  %30 = fdiv nsz double %28, %29
  %31 = fcmp nsz olt double %30, 1.000000e+00
  br i1 %31, label %32, label %33

32:                                               ; preds = %25
  br label %33

33:                                               ; preds = %32, %25, %20
  %34 = phi nsz double [ %30, %32 ], [ 1.000000e+00, %25 ], [ %23, %20 ]
  %35 = fsub nsz double %34, %23
  %36 = tail call nsz double @llvm.fmuladd.f64(double %35, double %19, double %23)
  %37 = fptrunc nsz double %36 to float
  %38 = getelementptr inbounds nuw float, ptr %.03847.us, i64 %indvars.iv
  store float %37, ptr %38, align 4, !tbaa !81
  %indvars.iv.next = add nuw nsw i64 %indvars.iv, 1
  %exitcond.not = icmp eq i64 %indvars.iv.next, %6
  br i1 %exitcond.not, label %._crit_edge.us, label %20, !llvm.loop !582

._crit_edge.us:                                   ; preds = %33
  %39 = getelementptr inbounds nuw float, ptr %.03847.us, i64 %11
  %40 = getelementptr inbounds nuw float, ptr %.04045.us, i64 %12
  %41 = getelementptr inbounds nuw float, ptr %.03946.us, i64 %13
  %indvars.iv.next54 = add nuw nsw i64 %indvars.iv53, 1
  %exitcond56.not = icmp eq i64 %indvars.iv.next54, %7
  br i1 %exitcond56.not, label %._crit_edge49, label %.preheader.us, !llvm.loop !583

._crit_edge49:                                    ; preds = %._crit_edge.us, %.preheader.lr.ph, %10
  ret void
}